; Function Attrs: mustprogress nofree norecurse nosync nounwind willreturn memory(argmem: read) uwtable
define dso_local nonnull ptr @Curl_ssl_cf_get_primary_config(ptr noundef readonly captures(none) %0) local_unnamed_addr #5 {
  %2 = load ptr, ptr %0, align 8
  %3 = icmp eq ptr %2, @Curl_cft_ssl_proxy
  %4 = getelementptr inbounds nuw i8, ptr %0, i64 24
  %5 = load ptr, ptr %4, align 8
  %. = select i1 %3, i64 560, i64 448
  %6 = getelementptr inbounds nuw i8, ptr %5, i64 %.
  ret ptr %6
}